; Function Attrs: mustprogress nounwind uwtable
define dso_local noundef ptr @_ZN4llvm16MCObjectStreamer12emitCFILabelEv(ptr noundef nonnull align 8 dereferenceable(424) %0) unnamed_addr #0 align 2 {
  %2 = alloca %"class.llvm::Twine", align 8
  %3 = getelementptr inbounds nuw i8, ptr %0, i64 8
  %4 = load ptr, ptr %3, align 8
  %5 = getelementptr inbounds nuw i8, ptr %2, i64 32
  %6 = getelementptr inbounds nuw i8, ptr %2, i64 33
  store i8 1, ptr %6, align 1
  store ptr @.str.3, ptr %2, align 8
  store i8 3, ptr %5, align 8
  %7 = call noundef ptr @_ZN4llvm9MCContext16createTempSymbolERKNS_5TwineEb(ptr noundef nonnull align 8 dereferenceable(2432) %4, ptr noundef nonnull align 8 dereferenceable(34) %2, i1 noundef zeroext true) #20
  %8 = load ptr, ptr %0, align 8
  %9 = getelementptr inbounds nuw i8, ptr %8, i64 200
  %10 = load ptr, ptr %9, align 8
  call void %10(ptr noundef nonnull align 8 dereferenceable(424) %0, ptr noundef %7, ptr null) #20
  ret ptr %7
}